-----BEGIN EC PARAMETERS-----
BggqhkjOPQMBBw==
-----END EC PARAMETERS-----
-----BEGIN EC PRIVATE KEY-----
MHcCAQEEIMiTsjN6zyDdzq9ueEyHDRnPT2ZEs6KWWOpsEXLHeCZKoAoGCCqGSM49
AwEHoUQDQgAEIhcHDDYodCj5QFiH1LkEkXOM41SKj8eEcyPPYnFFbHpoPxC2VPr/
wJ4Ji3/TK1nBmODcxX348TF6sRt6qntA2w==
-----END EC PRIVATE KEY-----
Certificate:
    Data:
        Version: 3 (0x2)
        Serial Number:
            53:6f:35:8a:8a:8f:2f:ea:fb:d0:ae:0a:00:85:34:5d:36:35:d9:63
        Signature Algorithm: ecdsa-with-SHA256
        Issuer: C = FR, L = Limoges, O = CRYPTIS, OU = SecuTIC, CN = ACSECUTIC
        Validity
            Not Before: Apr 30 17:42:55 2021 GMT
            Not After : Apr 28 17:42:55 2031 GMT
        Subject: C = FR, L = Limoges, O = CRYPTIS, OU = SecuTIC, CN = localhost
        Subject Public Key Info:
            Public Key Algorithm: id-ecPublicKey
                Public-Key: (256 bit)
                pub:
                    04:22:17:07:0c:36:28:74:28:f9:40:58:87:d4:b9:
                    04:91:73:8c:e3:54:8a:8f:c7:84:73:23:cf:62:71:
                    45:6c:7a:68:3f:10:b6:54:fa:ff:c0:9e:09:8b:7f:
                    d3:2b:59:c1:98:e0:dc:c5:7d:f8:f1:31:7a:b1:1b:
                    7a:aa:7b:40:db
                ASN1 OID: prime256v1
                NIST CURVE: P-256
        X509v3 extensions:
            X509v3 Basic Constraints: critical
                CA:FALSE
    Signature Algorithm: ecdsa-with-SHA256
         30:45:02:21:00:d3:20:63:0b:6e:f9:80:1f:82:8a:5e:08:e4:
         99:d3:18:de:51:a7:a8:7f:9c:16:90:c2:d2:bd:2f:86:b5:7d:
         f5:02:20:20:e3:21:0c:00:ef:3a:53:69:8c:7b:e7:82:01:4d:
         58:02:fc:29:89:13:65:dd:8b:e7:b5:56:bb:79:c5:68:b0
-----BEGIN CERTIFICATE-----
MIIBwDCCAWagAwIBAgIUU281ioqPL+r70K4KAIU0XTY12WMwCgYIKoZIzj0EAwIw
VzELMAkGA1UEBhMCRlIxEDAOBgNVBAcMB0xpbW9nZXMxEDAOBgNVBAoMB0NSWVBU
SVMxEDAOBgNVBAsMB1NlY3VUSUMxEjAQBgNVBAMMCUFDU0VDVVRJQzAeFw0yMTA0
MzAxNzQyNTVaFw0zMTA0MjgxNzQyNTVaMFcxCzAJBgNVBAYTAkZSMRAwDgYDVQQH
DAdMaW1vZ2VzMRAwDgYDVQQKDAdDUllQVElTMRAwDgYDVQQLDAdTZWN1VElDMRIw
EAYDVQQDDAlsb2NhbGhvc3QwWTATBgcqhkjOPQIBBggqhkjOPQMBBwNCAAQiFwcM
Nih0KPlAWIfUuQSRc4zjVIqPx4RzI89icUVsemg/ELZU+v/AngmLf9MrWcGY4NzF
ffjxMXqxG3qqe0DboxAwDjAMBgNVHRMBAf8EAjAAMAoGCCqGSM49BAMCA0gAMEUC
IQDTIGMLbvmAH4KKXgjkmdMY3lGnqH+cFpDC0r0vhrV99QIgIOMhDADvOlNpjHvn
ggFNWAL8KYkTZd2L57VWu3nFaLA=
-----END CERTIFICATE-----
