-----BEGIN EC PARAMETERS-----
BggqhkjOPQMBBw==
-----END EC PARAMETERS-----
-----BEGIN EC PRIVATE KEY-----
MHcCAQEEIOp9tTW4Jq4jRcpSw2RAX+DK3UgIRGR9qA/WeoZfZS0xoAoGCCqGSM49
AwEHoUQDQgAEUAzYCTSWYURt7zNH2SxDb8xqWhZuSZBbjVPbY+ivJeNz4hnQvhMZ
J1S8j0QVlt5xq27TmS0JBwiMydC5352u6Q==
-----END EC PRIVATE KEY-----
Certificate:
    Data:
        Version: 3 (0x2)
        Serial Number:
            2c:d8:da:23:30:2d:3a:fb:19:24:30:3b:32:d7:40:ad:e4:da:14:e2
        Signature Algorithm: ecdsa-with-SHA256
        Issuer: C = FR, L = Limoges, O = CRYPTIS, OU = SecuTIC, CN = CertifPlus
        Validity
            Not Before: May  3 15:55:47 2021 GMT
            Not After : May  1 15:55:47 2031 GMT
        Subject: C = FR, L = Limoges, O = CRYPTIS, OU = SecuTIC, CN = localhost
        Subject Public Key Info:
            Public Key Algorithm: id-ecPublicKey
                Public-Key: (256 bit)
                pub:
                    04:50:0c:d8:09:34:96:61:44:6d:ef:33:47:d9:2c:
                    43:6f:cc:6a:5a:16:6e:49:90:5b:8d:53:db:63:e8:
                    af:25:e3:73:e2:19:d0:be:13:19:27:54:bc:8f:44:
                    15:96:de:71:ab:6e:d3:99:2d:09:07:08:8c:c9:d0:
                    b9:df:9d:ae:e9
                ASN1 OID: prime256v1
                NIST CURVE: P-256
        X509v3 extensions:
            X509v3 Basic Constraints: critical
                CA:FALSE
    Signature Algorithm: ecdsa-with-SHA256
         30:46:02:21:00:80:bc:a9:e6:5b:e3:0f:dc:4f:69:36:10:89:
         61:56:a7:8c:59:73:8b:d5:b9:1a:e6:3c:fa:fb:58:d4:48:ec:
         de:02:21:00:8b:24:42:45:61:de:4a:da:9a:ff:ea:d7:bd:2f:
         f4:57:de:86:9f:0b:4d:6f:b1:75:78:2d:85:d6:f4:92:f0:22
-----BEGIN CERTIFICATE-----
MIIBwjCCAWegAwIBAgIULNjaIzAtOvsZJDA7MtdAreTaFOIwCgYIKoZIzj0EAwIw
WDELMAkGA1UEBhMCRlIxEDAOBgNVBAcMB0xpbW9nZXMxEDAOBgNVBAoMB0NSWVBU
SVMxEDAOBgNVBAsMB1NlY3VUSUMxEzARBgNVBAMMCkNlcnRpZlBsdXMwHhcNMjEw
NTAzMTU1NTQ3WhcNMzEwNTAxMTU1NTQ3WjBXMQswCQYDVQQGEwJGUjEQMA4GA1UE
BwwHTGltb2dlczEQMA4GA1UECgwHQ1JZUFRJUzEQMA4GA1UECwwHU2VjdVRJQzES
MBAGA1UEAwwJbG9jYWxob3N0MFkwEwYHKoZIzj0CAQYIKoZIzj0DAQcDQgAEUAzY
CTSWYURt7zNH2SxDb8xqWhZuSZBbjVPbY+ivJeNz4hnQvhMZJ1S8j0QVlt5xq27T
mS0JBwiMydC5352u6aMQMA4wDAYDVR0TAQH/BAIwADAKBggqhkjOPQQDAgNJADBG
AiEAgLyp5lvjD9xPaTYQiWFWp4xZc4vVuRrmPPr7WNRI7N4CIQCLJEJFYd5K2pr/
6te9L/RX3oafC01vsXV4LYXW9JLwIg==
-----END CERTIFICATE-----
