-----BEGIN EC PARAMETERS-----
BggqhkjOPQMBBw==
-----END EC PARAMETERS-----
-----BEGIN EC PRIVATE KEY-----
MHcCAQEEIExQ/mP00/IbwUZBs9tHHpRfmP6n+6GX2K3kFcWnnNRVoAoGCCqGSM49
AwEHoUQDQgAEk25fe5sTGjzNku69BgMV81VFEvyyiR6G0ZDkhozw0C2P/hqujmND
oNvtItCX5ezGvKh4hJl9qWmIRxBlPiS/0A==
-----END EC PRIVATE KEY-----
Certificate:
    Data:
        Version: 3 (0x2)
        Serial Number:
            53:4e:fc:08:42:ba:cc:e9:06:10:5f:db:52:ab:a0:cb:1b:8b:95:a2
        Signature Algorithm: ecdsa-with-SHA256
        Issuer: C = FR, L = Limoges, O = CRYPTIS, OU = SecuTIC, CN = ACSECUTIC
        Validity
            Not Before: Apr 29 20:30:04 2021 GMT
            Not After : Apr 27 20:30:04 2031 GMT
        Subject: C = FR, L = Limoges, O = CRYPTIS, OU = SecuTIC, CN = localhost
        Subject Public Key Info:
            Public Key Algorithm: id-ecPublicKey
                Public-Key: (256 bit)
                pub:
                    04:93:6e:5f:7b:9b:13:1a:3c:cd:92:ee:bd:06:03:
                    15:f3:55:45:12:fc:b2:89:1e:86:d1:90:e4:86:8c:
                    f0:d0:2d:8f:fe:1a:ae:8e:63:43:a0:db:ed:22:d0:
                    97:e5:ec:c6:bc:a8:78:84:99:7d:a9:69:88:47:10:
                    65:3e:24:bf:d0
                ASN1 OID: prime256v1
                NIST CURVE: P-256
        X509v3 extensions:
            X509v3 Basic Constraints: critical
                CA:FALSE
    Signature Algorithm: ecdsa-with-SHA256
         30:45:02:21:00:b2:60:ff:ff:47:ff:d5:4b:67:27:78:5f:4a:
         27:f9:37:25:eb:a2:4a:2f:90:5e:e8:8c:fb:5a:da:29:f8:f5:
         69:02:20:3f:9b:5e:40:e4:68:6d:9d:89:a2:fa:81:00:cb:7d:
         50:f9:e3:3a:ba:29:d7:35:18:6b:6d:a3:6d:cf:b1:04:c7
-----BEGIN CERTIFICATE-----
MIIBwDCCAWagAwIBAgIUU078CEK6zOkGEF/bUqugyxuLlaIwCgYIKoZIzj0EAwIw
VzELMAkGA1UEBhMCRlIxEDAOBgNVBAcMB0xpbW9nZXMxEDAOBgNVBAoMB0NSWVBU
SVMxEDAOBgNVBAsMB1NlY3VUSUMxEjAQBgNVBAMMCUFDU0VDVVRJQzAeFw0yMTA0
MjkyMDMwMDRaFw0zMTA0MjcyMDMwMDRaMFcxCzAJBgNVBAYTAkZSMRAwDgYDVQQH
DAdMaW1vZ2VzMRAwDgYDVQQKDAdDUllQVElTMRAwDgYDVQQLDAdTZWN1VElDMRIw
EAYDVQQDDAlsb2NhbGhvc3QwWTATBgcqhkjOPQIBBggqhkjOPQMBBwNCAASTbl97
mxMaPM2S7r0GAxXzVUUS/LKJHobRkOSGjPDQLY/+Gq6OY0Og2+0i0Jfl7Ma8qHiE
mX2paYhHEGU+JL/QoxAwDjAMBgNVHRMBAf8EAjAAMAoGCCqGSM49BAMCA0gAMEUC
IQCyYP//R//VS2cneF9KJ/k3JeuiSi+QXuiM+1raKfj1aQIgP5teQORobZ2JovqB
AMt9UPnjOrop1zUYa22jbc+xBMc=
-----END CERTIFICATE-----
