Certificate Request:
    Data:
        Version: 1 (0x0)
        Subject: C = FR, L = Limoges, O = CRYPTIS, OU = SecuTIC, CN = localhost
        Subject Public Key Info:
            Public Key Algorithm: id-ecPublicKey
                Public-Key: (256 bit)
                pub:
                    04:22:17:07:0c:36:28:74:28:f9:40:58:87:d4:b9:
                    04:91:73:8c:e3:54:8a:8f:c7:84:73:23:cf:62:71:
                    45:6c:7a:68:3f:10:b6:54:fa:ff:c0:9e:09:8b:7f:
                    d3:2b:59:c1:98:e0:dc:c5:7d:f8:f1:31:7a:b1:1b:
                    7a:aa:7b:40:db
                ASN1 OID: prime256v1
                NIST CURVE: P-256
        Attributes:
        Requested Extensions:
            X509v3 Basic Constraints: 
                CA:FALSE
    Signature Algorithm: ecdsa-with-SHA256
         30:45:02:20:1b:79:3d:57:ce:a5:00:c8:87:5f:b5:3f:7a:ac:
         c2:20:14:64:bf:2c:ca:07:06:9b:da:90:81:f0:69:38:f8:7d:
         02:21:00:e4:50:ff:a8:1b:cd:c0:c8:78:d2:46:d8:cc:e6:75:
         db:ae:61:45:86:7b:77:13:41:8f:ad:c3:2a:84:be:84:0d
-----BEGIN CERTIFICATE REQUEST-----
MIIBLjCB1QIBADBXMQswCQYDVQQGEwJGUjEQMA4GA1UEBwwHTGltb2dlczEQMA4G
A1UECgwHQ1JZUFRJUzEQMA4GA1UECwwHU2VjdVRJQzESMBAGA1UEAwwJbG9jYWxo
b3N0MFkwEwYHKoZIzj0CAQYIKoZIzj0DAQcDQgAEIhcHDDYodCj5QFiH1LkEkXOM
41SKj8eEcyPPYnFFbHpoPxC2VPr/wJ4Ji3/TK1nBmODcxX348TF6sRt6qntA26Ac
MBoGCSqGSIb3DQEJDjENMAswCQYDVR0TBAIwADAKBggqhkjOPQQDAgNIADBFAiAb
eT1XzqUAyIdftT96rMIgFGS/LMoHBpvakIHwaTj4fQIhAORQ/6gbzcDIeNJG2Mzm
dduuYUWGe3cTQY+twyqEvoQN
-----END CERTIFICATE REQUEST-----
