Certificate:
    Data:
        Version: 3 (0x2)
        Serial Number:
            10:23:c5:e4:7f:73:20:36:0a:d2:4a:07:58:6b:3a:7d:bf:5b:de:11
        Signature Algorithm: ecdsa-with-SHA256
        Issuer: C = FR, L = Limoges, O = CRYPTIS, OU = SecuTIC, CN = ACSECUTIC
        Validity
            Not Before: Apr 30 17:42:55 2021 GMT
            Not After : May 30 17:42:55 2021 GMT
        Subject: C = FR, L = Limoges, O = CRYPTIS, OU = SecuTIC, CN = ACSECUTIC
        Subject Public Key Info:
            Public Key Algorithm: id-ecPublicKey
                Public-Key: (256 bit)
                pub:
                    04:40:aa:00:8f:84:b3:9c:f0:a3:d6:53:ab:6f:9a:
                    69:3a:fb:a9:49:17:86:7d:3f:60:ef:90:ad:4f:98:
                    73:49:2c:03:fd:4a:58:57:37:91:ed:b6:9a:e9:85:
                    7b:54:f7:50:9e:40:3c:f4:e7:81:b4:4a:3f:62:6a:
                    2a:56:e7:96:c6
                ASN1 OID: prime256v1
                NIST CURVE: P-256
        X509v3 extensions:
            X509v3 Basic Constraints: 
                CA:TRUE
    Signature Algorithm: ecdsa-with-SHA256
         30:45:02:20:68:0c:f9:83:c1:e8:7b:73:58:65:32:a9:5c:4f:
         b3:3b:6d:82:1b:85:0a:ba:30:e2:45:47:c5:cb:8e:f4:15:67:
         02:21:00:da:67:b5:49:b4:53:01:af:98:9f:38:fa:42:27:31:
         88:07:b0:5c:47:89:4e:3a:5a:32:94:7c:c5:70:26:eb:9a
-----BEGIN CERTIFICATE-----
MIIBwDCCAWagAwIBAgIUECPF5H9zIDYK0koHWGs6fb9b3hEwCgYIKoZIzj0EAwIw
VzELMAkGA1UEBhMCRlIxEDAOBgNVBAcMB0xpbW9nZXMxEDAOBgNVBAoMB0NSWVBU
SVMxEDAOBgNVBAsMB1NlY3VUSUMxEjAQBgNVBAMMCUFDU0VDVVRJQzAeFw0yMTA0
MzAxNzQyNTVaFw0yMTA1MzAxNzQyNTVaMFcxCzAJBgNVBAYTAkZSMRAwDgYDVQQH
DAdMaW1vZ2VzMRAwDgYDVQQKDAdDUllQVElTMRAwDgYDVQQLDAdTZWN1VElDMRIw
EAYDVQQDDAlBQ1NFQ1VUSUMwWTATBgcqhkjOPQIBBggqhkjOPQMBBwNCAARAqgCP
hLOc8KPWU6tvmmk6+6lJF4Z9P2DvkK1PmHNJLAP9SlhXN5HttprphXtU91CeQDz0
54G0Sj9iaipW55bGoxAwDjAMBgNVHRMEBTADAQH/MAoGCCqGSM49BAMCA0gAMEUC
IGgM+YPB6HtzWGUyqVxPszttghuFCrow4kVHxcuO9BVnAiEA2me1SbRTAa+Ynzj6
QicxiAewXEeJTjpaMpR8xXAm65o=
-----END CERTIFICATE-----
