Certificate:
    Data:
        Version: 3 (0x2)
        Serial Number:
            03:69:ee:5c:d8:12:aa:a0:fa:72:d5:65:77:4e:48:f8:af:70:59:cf
        Signature Algorithm: ecdsa-with-SHA256
        Issuer: C = FR, L = Limoges, O = CRYPTIS, OU = SecuTIC, CN = ACSECUTIC
        Validity
            Not Before: Apr 29 20:30:04 2021 GMT
            Not After : May 29 20:30:04 2021 GMT
        Subject: C = FR, L = Limoges, O = CRYPTIS, OU = SecuTIC, CN = ACSECUTIC
        Subject Public Key Info:
            Public Key Algorithm: id-ecPublicKey
                Public-Key: (256 bit)
                pub:
                    04:9e:2f:3a:3b:00:8e:44:ab:51:86:f2:80:47:cd:
                    cb:64:6f:1a:69:4c:19:d6:16:70:e0:50:10:a1:e2:
                    41:2c:e0:88:35:42:ef:b2:b9:fe:e8:18:3b:79:7a:
                    46:c7:7c:32:32:3f:aa:e2:cb:78:09:be:88:e0:17:
                    b7:e9:40:9b:50
                ASN1 OID: prime256v1
                NIST CURVE: P-256
        X509v3 extensions:
            X509v3 Basic Constraints: 
                CA:TRUE
    Signature Algorithm: ecdsa-with-SHA256
         30:46:02:21:00:84:35:4f:04:1a:e3:a5:e2:62:24:76:15:ab:
         b1:40:3c:83:47:ec:8f:7f:9c:51:98:6b:e3:10:cf:4c:09:a1:
         48:02:21:00:e6:44:c1:e3:8e:32:de:e2:a9:d4:05:72:eb:75:
         f9:1b:d9:ec:1b:98:57:13:37:07:d0:01:51:42:d4:d0:c0:c9
-----BEGIN CERTIFICATE-----
MIIBwTCCAWagAwIBAgIUA2nuXNgSqqD6ctVld05I+K9wWc8wCgYIKoZIzj0EAwIw
VzELMAkGA1UEBhMCRlIxEDAOBgNVBAcMB0xpbW9nZXMxEDAOBgNVBAoMB0NSWVBU
SVMxEDAOBgNVBAsMB1NlY3VUSUMxEjAQBgNVBAMMCUFDU0VDVVRJQzAeFw0yMTA0
MjkyMDMwMDRaFw0yMTA1MjkyMDMwMDRaMFcxCzAJBgNVBAYTAkZSMRAwDgYDVQQH
DAdMaW1vZ2VzMRAwDgYDVQQKDAdDUllQVElTMRAwDgYDVQQLDAdTZWN1VElDMRIw
EAYDVQQDDAlBQ1NFQ1VUSUMwWTATBgcqhkjOPQIBBggqhkjOPQMBBwNCAASeLzo7
AI5Eq1GG8oBHzctkbxppTBnWFnDgUBCh4kEs4Ig1Qu+yuf7oGDt5ekbHfDIyP6ri
y3gJvojgF7fpQJtQoxAwDjAMBgNVHRMEBTADAQH/MAoGCCqGSM49BAMCA0kAMEYC
IQCENU8EGuOl4mIkdhWrsUA8g0fsj3+cUZhr4xDPTAmhSAIhAOZEweOOMt7iqdQF
cut1+RvZ7BuYVxM3B9ABUULU0MDJ
-----END CERTIFICATE-----
