Certificate Request:
    Data:
        Version: 1 (0x0)
        Subject: C = FR, L = Limoges, O = CRYPTIS, OU = SecuTIC, CN = localhost
        Subject Public Key Info:
            Public Key Algorithm: id-ecPublicKey
                Public-Key: (256 bit)
                pub:
                    04:50:0c:d8:09:34:96:61:44:6d:ef:33:47:d9:2c:
                    43:6f:cc:6a:5a:16:6e:49:90:5b:8d:53:db:63:e8:
                    af:25:e3:73:e2:19:d0:be:13:19:27:54:bc:8f:44:
                    15:96:de:71:ab:6e:d3:99:2d:09:07:08:8c:c9:d0:
                    b9:df:9d:ae:e9
                ASN1 OID: prime256v1
                NIST CURVE: P-256
        Attributes:
        Requested Extensions:
            X509v3 Basic Constraints: 
                CA:FALSE
    Signature Algorithm: ecdsa-with-SHA256
         30:45:02:20:5f:df:ed:72:6c:61:07:d7:60:d9:c9:ef:4b:42:
         e4:30:d7:90:8e:1c:22:fe:52:da:d6:7a:1c:cc:e2:0e:bd:e9:
         02:21:00:b8:4d:6d:7a:98:8e:4f:7e:42:3a:9c:89:91:17:4a:
         48:fc:d8:78:34:ec:be:30:fd:0e:ef:d4:8e:82:f5:ff:5a
-----BEGIN CERTIFICATE REQUEST-----
MIIBLjCB1QIBADBXMQswCQYDVQQGEwJGUjEQMA4GA1UEBwwHTGltb2dlczEQMA4G
A1UECgwHQ1JZUFRJUzEQMA4GA1UECwwHU2VjdVRJQzESMBAGA1UEAwwJbG9jYWxo
b3N0MFkwEwYHKoZIzj0CAQYIKoZIzj0DAQcDQgAEUAzYCTSWYURt7zNH2SxDb8xq
WhZuSZBbjVPbY+ivJeNz4hnQvhMZJ1S8j0QVlt5xq27TmS0JBwiMydC5352u6aAc
MBoGCSqGSIb3DQEJDjENMAswCQYDVR0TBAIwADAKBggqhkjOPQQDAgNIADBFAiBf
3+1ybGEH12DZye9LQuQw15COHCL+UtrWehzM4g696QIhALhNbXqYjk9+QjqciZEX
Skj82Hg07L4w/Q7v1I6C9f9a
-----END CERTIFICATE REQUEST-----
