Certificate:
    Data:
        Version: 3 (0x2)
        Serial Number:
            15:c8:72:0f:ca:62:f4:88:8c:4e:23:09:8d:f3:76:04:06:c5:2f:9d
        Signature Algorithm: ecdsa-with-SHA256
        Issuer: C = FR, L = Limoges, O = CRYPTIS, OU = SecuTIC, CN = CertifPlus
        Validity
            Not Before: May  3 15:55:47 2021 GMT
            Not After : Jun  2 15:55:47 2021 GMT
        Subject: C = FR, L = Limoges, O = CRYPTIS, OU = SecuTIC, CN = CertifPlus
        Subject Public Key Info:
            Public Key Algorithm: id-ecPublicKey
                Public-Key: (256 bit)
                pub:
                    04:f1:36:3a:3f:c2:94:7c:8c:72:f1:a4:71:40:7f:
                    66:74:ac:6c:a9:99:71:0a:de:54:49:11:09:82:c6:
                    1f:07:7c:f1:58:9f:47:fa:d7:8c:b1:1b:9d:85:a2:
                    f5:2e:f3:29:91:33:f2:42:a9:9d:40:02:88:be:fd:
                    ea:29:ac:aa:9b
                ASN1 OID: prime256v1
                NIST CURVE: P-256
        X509v3 extensions:
            X509v3 Basic Constraints: 
                CA:TRUE
    Signature Algorithm: ecdsa-with-SHA256
         30:45:02:21:00:b0:19:aa:cc:2e:db:3c:0c:e3:a8:4b:50:5a:
         ce:a0:d1:01:8c:5f:d5:fa:5b:20:ac:c4:3a:b6:79:65:5e:3d:
         e5:02:20:1a:f6:db:b3:c2:a5:4d:f1:92:02:b8:96:40:c3:17:
         38:5d:0f:23:b9:5d:c3:47:59:a7:3a:92:43:56:b3:98:5a
-----BEGIN CERTIFICATE-----
MIIBwjCCAWigAwIBAgIUFchyD8pi9IiMTiMJjfN2BAbFL50wCgYIKoZIzj0EAwIw
WDELMAkGA1UEBhMCRlIxEDAOBgNVBAcMB0xpbW9nZXMxEDAOBgNVBAoMB0NSWVBU
SVMxEDAOBgNVBAsMB1NlY3VUSUMxEzARBgNVBAMMCkNlcnRpZlBsdXMwHhcNMjEw
NTAzMTU1NTQ3WhcNMjEwNjAyMTU1NTQ3WjBYMQswCQYDVQQGEwJGUjEQMA4GA1UE
BwwHTGltb2dlczEQMA4GA1UECgwHQ1JZUFRJUzEQMA4GA1UECwwHU2VjdVRJQzET
MBEGA1UEAwwKQ2VydGlmUGx1czBZMBMGByqGSM49AgEGCCqGSM49AwEHA0IABPE2
Oj/ClHyMcvGkcUB/ZnSsbKmZcQreVEkRCYLGHwd88VifR/rXjLEbnYWi9S7zKZEz
8kKpnUACiL796imsqpujEDAOMAwGA1UdEwQFMAMBAf8wCgYIKoZIzj0EAwIDSAAw
RQIhALAZqswu2zwM46hLUFrOoNEBjF/V+lsgrMQ6tnllXj3lAiAa9tuzwqVN8ZIC
uJZAwxc4XQ8juV3DR1mnOpJDVrOYWg==
-----END CERTIFICATE-----
