Certificate Request:
    Data:
        Version: 1 (0x0)
        Subject: C = FR, L = Limoges, O = CRYPTIS, OU = SecuTIC, CN = localhost
        Subject Public Key Info:
            Public Key Algorithm: id-ecPublicKey
                Public-Key: (256 bit)
                pub:
                    04:93:6e:5f:7b:9b:13:1a:3c:cd:92:ee:bd:06:03:
                    15:f3:55:45:12:fc:b2:89:1e:86:d1:90:e4:86:8c:
                    f0:d0:2d:8f:fe:1a:ae:8e:63:43:a0:db:ed:22:d0:
                    97:e5:ec:c6:bc:a8:78:84:99:7d:a9:69:88:47:10:
                    65:3e:24:bf:d0
                ASN1 OID: prime256v1
                NIST CURVE: P-256
        Attributes:
        Requested Extensions:
            X509v3 Basic Constraints: 
                CA:FALSE
    Signature Algorithm: ecdsa-with-SHA256
         30:44:02:20:0a:07:02:40:2c:1f:2d:b9:ef:62:09:a8:c5:ec:
         ec:c9:fc:0f:57:c3:a0:e3:cb:3a:66:2f:e0:5a:36:94:25:e6:
         02:20:47:a7:4d:3d:1f:b3:bc:7e:42:76:5a:31:01:68:6c:eb:
         4f:48:94:75:94:80:db:f6:96:74:fb:fa:4a:0a:f0:a1
-----BEGIN CERTIFICATE REQUEST-----
MIIBLTCB1QIBADBXMQswCQYDVQQGEwJGUjEQMA4GA1UEBwwHTGltb2dlczEQMA4G
A1UECgwHQ1JZUFRJUzEQMA4GA1UECwwHU2VjdVRJQzESMBAGA1UEAwwJbG9jYWxo
b3N0MFkwEwYHKoZIzj0CAQYIKoZIzj0DAQcDQgAEk25fe5sTGjzNku69BgMV81VF
EvyyiR6G0ZDkhozw0C2P/hqujmNDoNvtItCX5ezGvKh4hJl9qWmIRxBlPiS/0KAc
MBoGCSqGSIb3DQEJDjENMAswCQYDVR0TBAIwADAKBggqhkjOPQQDAgNHADBEAiAK
BwJALB8tue9iCajF7OzJ/A9Xw6DjyzpmL+BaNpQl5gIgR6dNPR+zvH5CdloxAWhs
609IlHWUgNv2lnT7+koK8KE=
-----END CERTIFICATE REQUEST-----
